; Function Attrs: mustprogress uwtable
define void @_ZN16WirelessTimeline17mouseReleaseEventEP11QMouseEvent(ptr nocapture noundef nonnull readonly align 8 dereferenceable(896) %0, ptr nocapture noundef readonly %1) unnamed_addr #0 align 2 personality ptr @__gxx_personality_v0 {
  %3 = getelementptr inbounds i8, ptr %1, i64 48
  %4 = load ptr, ptr %3, align 8
  %5 = tail call { double, double } @_ZNK11QEventPoint8positionEv(ptr noundef nonnull align 8 dereferenceable(8) %4)
  %6 = extractvalue { double, double } %5, 0
  %7 = getelementptr inbounds i8, ptr %0, i64 48
  %8 = load double, ptr %7, align 8
  %9 = fsub double %6, %8
  %10 = tail call noundef double @llvm.fabs.f64(double %9)
  %11 = fcmp ogt double %10, 3.000000e+00
  br i1 %11, label %26, label %12

12:                                               ; preds = %2
  %13 = tail call noundef i32 @_ZN16WirelessTimeline11find_packetEd(ptr noundef nonnull align 8 dereferenceable(896) %0, double noundef %6)
  %14 = icmp eq i32 %13, 0
  br i1 %14, label %26, label %15

15:                                               ; preds = %12
  %16 = load ptr, ptr getelementptr inbounds (%struct._capture_file, ptr @cfile, i64 0, i32 42, i32 4), align 8
  %17 = tail call ptr @frame_data_sequence_find(ptr noundef %16, i32 noundef %13)
  %18 = getelementptr inbounds i8, ptr %17, i64 50
  %19 = load i16, ptr %18, align 2
  %20 = and i16 %19, 1
  %.not = icmp eq i16 %20, 0
  br i1 %.not, label %21, label %24

21:                                               ; preds = %15
  %22 = getelementptr inbounds i8, ptr %17, i64 92
  %23 = load i32, ptr %22, align 4
  %.not10 = icmp eq i32 %23, 0
  %spec.select = select i1 %.not10, i32 %13, i32 %23
  br label %24

24:                                               ; preds = %21, %15
  %.0 = phi i32 [ %13, %15 ], [ %spec.select, %21 ]
  %25 = tail call i32 @cf_goto_frame(ptr noundef nonnull @cfile, i32 noundef %.0)
  br label %26

26:                                               ; preds = %12, %2, %24
  ret void
}